; Function Attrs: mustprogress nofree norecurse nosync nounwind willreturn memory(argmem: read) uwtable
define internal i32 @dataGetLeftMostPage(ptr readnone captures(none) %0, ptr noundef readonly captures(none) %1) #7 {
  %3 = getelementptr inbounds nuw i8, ptr %1, i64 32
  %.val = load i16, ptr %3, align 2
  %4 = getelementptr i8, ptr %1, i64 34
  %.val2 = load i16, ptr %4, align 2
  %5 = zext i16 %.val to i32
  %6 = shl nuw i32 %5, 16
  %7 = zext i16 %.val2 to i32
  %8 = or disjoint i32 %6, %7
  ret i32 %8
}